target datalayout = "e-m:e-p270:32:32-p271:32:32-p272:64:64-i64:64-i128:128-f80:128-n8:16:32:64-S128"
target triple = "x86_64-unknown-linux-gnu"

%"struct.OpenColorIO_v2_4dev::GradingRGBM" = type { double, double, double, double }

@.str.6 = private unnamed_addr constant [2 x i8] c">\00", align 1
@.str.7 = private unnamed_addr constant [4 x i8] c"<r=\00", align 1
@.str.8 = private unnamed_addr constant [5 x i8] c", g=\00", align 1
@.str.9 = private unnamed_addr constant [5 x i8] c", b=\00", align 1
@.str.10 = private unnamed_addr constant [5 x i8] c", m=\00", align 1

; Function Attrs: mustprogress uwtable
define noundef nonnull align 8 dereferenceable(8) ptr @_ZN19OpenColorIO_v2_4devlsERSoRKNS_11GradingRGBME(ptr noundef nonnull align 8 dereferenceable(8) %os, ptr noundef nonnull align 8 dereferenceable(32) %rgbm) #0 {
entry:
  %os.addr = alloca ptr, align 8
  %rgbm.addr = alloca ptr, align 8
  store ptr %os, ptr %os.addr, align 8
  store ptr %rgbm, ptr %rgbm.addr, align 8
  %0 = load ptr, ptr %os.addr, align 8
  %call = call noundef nonnull align 8 dereferenceable(8) ptr @_ZStlsISt11char_traitsIcEERSt13basic_ostreamIcT_ES5_PKc(ptr noundef nonnull align 8 dereferenceable(8) %0, ptr noundef @.str.7)
  %1 = load ptr, ptr %rgbm.addr, align 8
  %m_red = getelementptr inbounds %"struct.OpenColorIO_v2_4dev::GradingRGBM", ptr %1, i32 0, i32 0
  %2 = load double, ptr %m_red, align 8
  %call1 = call noundef nonnull align 8 dereferenceable(8) ptr @_ZNSolsEd(ptr noundef nonnull align 8 dereferenceable(8) %call, double noundef %2)
  %call2 = call noundef nonnull align 8 dereferenceable(8) ptr @_ZStlsISt11char_traitsIcEERSt13basic_ostreamIcT_ES5_PKc(ptr noundef nonnull align 8 dereferenceable(8) %call1, ptr noundef @.str.8)
  %3 = load ptr, ptr %rgbm.addr, align 8
  %m_green = getelementptr inbounds %"struct.OpenColorIO_v2_4dev::GradingRGBM", ptr %3, i32 0, i32 1
  %4 = load double, ptr %m_green, align 8
  %call3 = call noundef nonnull align 8 dereferenceable(8) ptr @_ZNSolsEd(ptr noundef nonnull align 8 dereferenceable(8) %call2, double noundef %4)
  %call4 = call noundef nonnull align 8 dereferenceable(8) ptr @_ZStlsISt11char_traitsIcEERSt13basic_ostreamIcT_ES5_PKc(ptr noundef nonnull align 8 dereferenceable(8) %call3, ptr noundef @.str.9)
  %5 = load ptr, ptr %rgbm.addr, align 8
  %m_blue = getelementptr inbounds %"struct.OpenColorIO_v2_4dev::GradingRGBM", ptr %5, i32 0, i32 2
  %6 = load double, ptr %m_blue, align 8
  %call5 = call noundef nonnull align 8 dereferenceable(8) ptr @_ZNSolsEd(ptr noundef nonnull align 8 dereferenceable(8) %call4, double noundef %6)
  %call6 = call noundef nonnull align 8 dereferenceable(8) ptr @_ZStlsISt11char_traitsIcEERSt13basic_ostreamIcT_ES5_PKc(ptr noundef nonnull align 8 dereferenceable(8) %call5, ptr noundef @.str.10)
  %7 = load ptr, ptr %rgbm.addr, align 8
  %m_master = getelementptr inbounds %"struct.OpenColorIO_v2_4dev::GradingRGBM", ptr %7, i32 0, i32 3
  %8 = load double, ptr %m_master, align 8
  %call7 = call noundef nonnull align 8 dereferenceable(8) ptr @_ZNSolsEd(ptr noundef nonnull align 8 dereferenceable(8) %call6, double noundef %8)
  %call8 = call noundef nonnull align 8 dereferenceable(8) ptr @_ZStlsISt11char_traitsIcEERSt13basic_ostreamIcT_ES5_PKc(ptr noundef nonnull align 8 dereferenceable(8) %call7, ptr noundef @.str.6)
  %9 = load ptr, ptr %os.addr, align 8
  ret ptr %9
}